target datalayout = "e-m:e-p270:32:32-p271:32:32-p272:64:64-i64:64-i128:128-f80:128-n8:16:32:64-S128"
target triple = "x86_64-pc-linux-gnu"

; Function Attrs: nounwind uwtable
define dso_local void @luaSetTableProtectionRecursively(ptr noundef %0) #0 {
  %2 = alloca ptr, align 8
  store ptr %0, ptr %2, align 8, !tbaa !5
  %3 = load ptr, ptr %2, align 8, !tbaa !5
  %4 = call i32 @lua_isreadonlytable(ptr noundef %3, i32 noundef -1)
  %5 = icmp ne i32 %4, 0
  br i1 %5, label %6, label %7

6:                                                ; preds = %1
  br label %31

7:                                                ; preds = %1
  %8 = load ptr, ptr %2, align 8, !tbaa !5
  call void @lua_enablereadonlytable(ptr noundef %8, i32 noundef -1, i32 noundef 1)
  %9 = load ptr, ptr %2, align 8, !tbaa !5
  %10 = call i32 @lua_checkstack(ptr noundef %9, i32 noundef 2)
  %11 = load ptr, ptr %2, align 8, !tbaa !5
  call void @lua_pushnil(ptr noundef %11)
  br label %12

12:                                               ; preds = %22, %7
  %13 = load ptr, ptr %2, align 8, !tbaa !5
  %14 = call i32 @lua_next(ptr noundef %13, i32 noundef -2)
  %15 = icmp ne i32 %14, 0
  br i1 %15, label %16, label %24

16:                                               ; preds = %12
  %17 = load ptr, ptr %2, align 8, !tbaa !5
  %18 = call i32 @lua_type(ptr noundef %17, i32 noundef -1)
  %19 = icmp eq i32 %18, 5
  br i1 %19, label %20, label %22

20:                                               ; preds = %16
  %21 = load ptr, ptr %2, align 8, !tbaa !5
  call void @luaSetTableProtectionRecursively(ptr noundef %21)
  br label %22

22:                                               ; preds = %20, %16
  %23 = load ptr, ptr %2, align 8, !tbaa !5
  call void @lua_settop(ptr noundef %23, i32 noundef -2)
  br label %12, !llvm.loop !62

24:                                               ; preds = %12
  %25 = load ptr, ptr %2, align 8, !tbaa !5
  %26 = call i32 @lua_getmetatable(ptr noundef %25, i32 noundef -1)
  %27 = icmp ne i32 %26, 0
  br i1 %27, label %28, label %31

28:                                               ; preds = %24
  %29 = load ptr, ptr %2, align 8, !tbaa !5
  call void @luaSetTableProtectionRecursively(ptr noundef %29)
  %30 = load ptr, ptr %2, align 8, !tbaa !5
  call void @lua_settop(ptr noundef %30, i32 noundef -2)
  br label %31

31:                                               ; preds = %6, %28, %24
  ret void
}