; Function Attrs: nounwind uwtable
define dso_local void @luaSetTableProtectionRecursively(ptr noundef %0) local_unnamed_addr #0 {
  %2 = tail call i32 @lua_isreadonlytable(ptr noundef %0, i32 noundef -1) #11
  %.not = icmp eq i32 %2, 0
  br i1 %.not, label %3, label %common.ret14

3:                                                ; preds = %1
  tail call void @lua_enablereadonlytable(ptr noundef %0, i32 noundef -1, i32 noundef 1) #11
  %4 = tail call i32 @lua_checkstack(ptr noundef %0, i32 noundef 2) #11
  tail call void @lua_pushnil(ptr noundef %0) #11
  %5 = tail call i32 @lua_next(ptr noundef %0, i32 noundef -2) #11
  %.not1113 = icmp eq i32 %5, 0
  br i1 %.not1113, label %._crit_edge, label %.lr.ph

.lr.ph:                                           ; preds = %3, %9
  %6 = tail call i32 @lua_type(ptr noundef %0, i32 noundef -1) #11
  %7 = icmp eq i32 %6, 5
  br i1 %7, label %8, label %9

8:                                                ; preds = %.lr.ph
  tail call void @luaSetTableProtectionRecursively(ptr noundef %0)
  br label %9

9:                                                ; preds = %8, %.lr.ph
  tail call void @lua_settop(ptr noundef %0, i32 noundef -2) #11
  %10 = tail call i32 @lua_next(ptr noundef %0, i32 noundef -2) #11
  %.not11 = icmp eq i32 %10, 0
  br i1 %.not11, label %._crit_edge, label %.lr.ph, !llvm.loop !59

._crit_edge:                                      ; preds = %9, %3
  %11 = tail call i32 @lua_getmetatable(ptr noundef %0, i32 noundef -1) #11
  %.not12 = icmp eq i32 %11, 0
  br i1 %.not12, label %common.ret14, label %12

common.ret14:                                     ; preds = %1, %._crit_edge, %12
  ret void

12:                                               ; preds = %._crit_edge
  tail call void @luaSetTableProtectionRecursively(ptr noundef %0)
  tail call void @lua_settop(ptr noundef %0, i32 noundef -2) #11
  br label %common.ret14
}